target datalayout = "e-m:e-p270:32:32-p271:32:32-p272:64:64-i64:64-i128:128-f80:128-n8:16:32:64-S128"
target triple = "x86_64-pc-linux-gnu"

@.str.1 = private unnamed_addr constant [11 x i8] c"flex-start\00", align 1
@.str.2 = private unnamed_addr constant [7 x i8] c"center\00", align 1
@.str.3 = private unnamed_addr constant [9 x i8] c"flex-end\00", align 1
@.str.6 = private unnamed_addr constant [14 x i8] c"space-between\00", align 1
@.str.7 = private unnamed_addr constant [13 x i8] c"space-around\00", align 1
@.str.8 = private unnamed_addr constant [13 x i8] c"space-evenly\00", align 1
@.str.9 = private unnamed_addr constant [8 x i8] c"unknown\00", align 1

; Function Attrs: mustprogress nounwind uwtable
define ptr @YGJustifyToString(i32 noundef %0) #0 {
  %2 = alloca ptr, align 8
  %3 = alloca i32, align 4
  store i32 %0, ptr %3, align 4, !tbaa !26
  %4 = load i32, ptr %3, align 4, !tbaa !26
  switch i32 %4, label %11 [
    i32 0, label %5
    i32 1, label %6
    i32 2, label %7
    i32 3, label %8
    i32 4, label %9
    i32 5, label %10
  ]

5:                                                ; preds = %1
  store ptr @.str.1, ptr %2, align 8
  br label %12

6:                                                ; preds = %1
  store ptr @.str.2, ptr %2, align 8
  br label %12

7:                                                ; preds = %1
  store ptr @.str.3, ptr %2, align 8
  br label %12

8:                                                ; preds = %1
  store ptr @.str.6, ptr %2, align 8
  br label %12

9:                                                ; preds = %1
  store ptr @.str.7, ptr %2, align 8
  br label %12

10:                                               ; preds = %1
  store ptr @.str.8, ptr %2, align 8
  br label %12

11:                                               ; preds = %1
  store ptr @.str.9, ptr %2, align 8
  br label %12

12:                                               ; preds = %11, %10, %9, %8, %7, %6, %5
  %13 = load ptr, ptr %2, align 8
  ret ptr %13
}